target datalayout = "e-m:e-p270:32:32-p271:32:32-p272:64:64-i64:64-i128:128-f80:128-n8:16:32:64-S128"
target triple = "x86_64-pc-linux-gnu"

%"class.Imath_3_1::half" = type { i16 }

; Function Attrs: inlinehint mustprogress nounwind uwtable
define linkonce_odr hidden noundef zeroext i16 @_ZNK9Imath_3_14half8mantissaEv(ptr noundef nonnull align 2 dereferenceable(2) %0) #6 comdat align 2 {
  %2 = alloca ptr, align 8
  store ptr %0, ptr %2, align 8, !tbaa !35
  %3 = load ptr, ptr %2, align 8
  %4 = getelementptr inbounds nuw %"class.Imath_3_1::half", ptr %3, i32 0, i32 0
  %5 = load i16, ptr %4, align 2, !tbaa !37
  %6 = zext i16 %5 to i32
  %7 = and i32 %6, 1023
  %8 = trunc i32 %7 to i16
  ret i16 %8
}

; Function Attrs: inlinehint mustprogress nounwind uwtable
define linkonce_odr hidden noundef zeroext i16 @_ZNK9Imath_3_14half8exponentEv(ptr noundef nonnull align 2 dereferenceable(2) %0) #6 comdat align 2 {
  %2 = alloca ptr, align 8
  store ptr %0, ptr %2, align 8, !tbaa !35
  %3 = load ptr, ptr %2, align 8
  %4 = getelementptr inbounds nuw %"class.Imath_3_1::half", ptr %3, i32 0, i32 0
  %5 = load i16, ptr %4, align 2, !tbaa !37
  %6 = zext i16 %5 to i32
  %7 = ashr i32 %6, 10
  %8 = and i32 %7, 31
  %9 = trunc i32 %8 to i16
  ret i16 %9
}

; Function Attrs: inlinehint mustprogress nounwind uwtable
define linkonce_odr noundef zeroext i16 @_ZNK9Imath_3_14half4bitsEv(ptr noundef nonnull align 2 dereferenceable(2) %0) #6 comdat align 2 {
  %2 = alloca ptr, align 8
  store ptr %0, ptr %2, align 8, !tbaa !35
  %3 = load ptr, ptr %2, align 8
  %4 = getelementptr inbounds nuw %"class.Imath_3_1::half", ptr %3, i32 0, i32 0
  %5 = load i16, ptr %4, align 2, !tbaa !37
  ret i16 %5
}

; Function Attrs: inlinehint mustprogress nounwind uwtable
define linkonce_odr hidden noundef zeroext i1 @_ZNK9Imath_3_14half10isInfinityEv(ptr noundef nonnull align 2 dereferenceable(2) %0) #6 comdat align 2 {
  %2 = alloca ptr, align 8
  store ptr %0, ptr %2, align 8, !tbaa !35
  %3 = load ptr, ptr %2, align 8
  %4 = call noundef zeroext i16 @_ZNK9Imath_3_14half8exponentEv(ptr noundef nonnull align 2 dereferenceable(2) %3) #3
  %5 = zext i16 %4 to i32
  %6 = icmp eq i32 %5, 31
  br i1 %6, label %7, label %11

7:                                                ; preds = %1
  %8 = call noundef zeroext i16 @_ZNK9Imath_3_14half8mantissaEv(ptr noundef nonnull align 2 dereferenceable(2) %3) #3
  %9 = zext i16 %8 to i32
  %10 = icmp eq i32 %9, 0
  br label %11

11:                                               ; preds = %7, %1
  %12 = phi i1 [ false, %1 ], [ %10, %7 ]
  ret i1 %12
}

; Function Attrs: inlinehint mustprogress nounwind uwtable
define linkonce_odr hidden noundef zeroext i1 @_ZNK9Imath_3_14half5isNanEv(ptr noundef nonnull align 2 dereferenceable(2) %0) #6 comdat align 2 {
  %2 = alloca ptr, align 8
  store ptr %0, ptr %2, align 8, !tbaa !35
  %3 = load ptr, ptr %2, align 8
  %4 = call noundef zeroext i16 @_ZNK9Imath_3_14half8exponentEv(ptr noundef nonnull align 2 dereferenceable(2) %3) #3
  %5 = zext i16 %4 to i32
  %6 = icmp eq i32 %5, 31
  br i1 %6, label %7, label %11

7:                                                ; preds = %1
  %8 = call noundef zeroext i16 @_ZNK9Imath_3_14half8mantissaEv(ptr noundef nonnull align 2 dereferenceable(2) %3) #3
  %9 = zext i16 %8 to i32
  %10 = icmp ne i32 %9, 0
  br label %11

11:                                               ; preds = %7, %1
  %12 = phi i1 [ false, %1 ], [ %10, %7 ]
  ret i1 %12
}

; Function Attrs: inlinehint mustprogress nounwind uwtable
define linkonce_odr hidden noundef i32 @_ZN19OpenColorIO_v2_5dev14HalfForCompareEN9Imath_3_14halfE(i16 %0) #6 comdat {
  %2 = alloca %"class.Imath_3_1::half", align 2
  %3 = alloca i32, align 4
  %4 = getelementptr inbounds nuw %"class.Imath_3_1::half", ptr %2, i32 0, i32 0
  store i16 %0, ptr %4, align 2
  call void @llvm.lifetime.start.p0(i64 4, ptr %3) #3
  %5 = call noundef zeroext i16 @_ZNK9Imath_3_14half4bitsEv(ptr noundef nonnull align 2 dereferenceable(2) %2) #3
  %6 = zext i16 %5 to i32
  store i32 %6, ptr %3, align 4, !tbaa !7
  %7 = load i32, ptr %3, align 4, !tbaa !7
  %8 = icmp slt i32 %7, 32767
  br i1 %8, label %9, label %12

9:                                                ; preds = %1
  %10 = load i32, ptr %3, align 4, !tbaa !7
  %11 = add nsw i32 %10, 32768
  br label %15

12:                                               ; preds = %1
  %13 = load i32, ptr %3, align 4, !tbaa !7
  %14 = sub nsw i32 65536, %13
  br label %15

15:                                               ; preds = %12, %9
  %16 = phi i32 [ %11, %9 ], [ %14, %12 ]
  call void @llvm.lifetime.end.p0(i64 4, ptr %3) #3
  ret i32 %16
}

; Function Attrs: mustprogress uwtable
define hidden noundef zeroext i1 @_ZN19OpenColorIO_v2_5dev11HalfsDifferEN9Imath_3_14halfES1_i(i16 %0, i16 %1, i32 noundef %2) #4 {
  %4 = alloca i1, align 1
  %5 = alloca %"class.Imath_3_1::half", align 2
  %6 = alloca %"class.Imath_3_1::half", align 2
  %7 = alloca i32, align 4
  %8 = alloca i32, align 4
  %9 = alloca %"class.Imath_3_1::half", align 2
  %10 = alloca i32, align 4
  %11 = alloca %"class.Imath_3_1::half", align 2
  %12 = alloca i32, align 4
  %13 = getelementptr inbounds nuw %"class.Imath_3_1::half", ptr %5, i32 0, i32 0
  store i16 %0, ptr %13, align 2
  %14 = getelementptr inbounds nuw %"class.Imath_3_1::half", ptr %6, i32 0, i32 0
  store i16 %1, ptr %14, align 2
  store i32 %2, ptr %7, align 4, !tbaa !7
  call void @llvm.lifetime.start.p0(i64 4, ptr %8) #3
  call void @llvm.memcpy.p0.p0.i64(ptr align 2 %9, ptr align 2 %5, i64 2, i1 false), !tbaa.struct !45
  %15 = getelementptr inbounds nuw %"class.Imath_3_1::half", ptr %9, i32 0, i32 0
  %16 = load i16, ptr %15, align 2
  %17 = call noundef i32 @_ZN19OpenColorIO_v2_5dev14HalfForCompareEN9Imath_3_14halfE(i16 %16)
  store i32 %17, ptr %8, align 4, !tbaa !7
  call void @llvm.lifetime.start.p0(i64 4, ptr %10) #3
  call void @llvm.memcpy.p0.p0.i64(ptr align 2 %11, ptr align 2 %6, i64 2, i1 false), !tbaa.struct !45
  %18 = getelementptr inbounds nuw %"class.Imath_3_1::half", ptr %11, i32 0, i32 0
  %19 = load i16, ptr %18, align 2
  %20 = call noundef i32 @_ZN19OpenColorIO_v2_5dev14HalfForCompareEN9Imath_3_14halfE(i16 %19)
  store i32 %20, ptr %10, align 4, !tbaa !7
  %21 = call noundef zeroext i1 @_ZNK9Imath_3_14half5isNanEv(ptr noundef nonnull align 2 dereferenceable(2) %5) #3
  br i1 %21, label %22, label %25

22:                                               ; preds = %3
  %23 = call noundef zeroext i1 @_ZNK9Imath_3_14half5isNanEv(ptr noundef nonnull align 2 dereferenceable(2) %6) #3
  %24 = xor i1 %23, true
  store i1 %24, ptr %4, align 1
  store i32 1, ptr %12, align 4
  br label %55

25:                                               ; preds = %3
  %26 = call noundef zeroext i1 @_ZNK9Imath_3_14half5isNanEv(ptr noundef nonnull align 2 dereferenceable(2) %6) #3
  br i1 %26, label %27, label %30

27:                                               ; preds = %25
  %28 = call noundef zeroext i1 @_ZNK9Imath_3_14half5isNanEv(ptr noundef nonnull align 2 dereferenceable(2) %5) #3
  %29 = xor i1 %28, true
  store i1 %29, ptr %4, align 1
  store i32 1, ptr %12, align 4
  br label %55

30:                                               ; preds = %25
  %31 = call noundef zeroext i1 @_ZNK9Imath_3_14half10isInfinityEv(ptr noundef nonnull align 2 dereferenceable(2) %5) #3
  br i1 %31, label %32, label %36

32:                                               ; preds = %30
  %33 = load i32, ptr %8, align 4, !tbaa !7
  %34 = load i32, ptr %10, align 4, !tbaa !7
  %35 = icmp ne i32 %33, %34
  store i1 %35, ptr %4, align 1
  store i32 1, ptr %12, align 4
  br label %55

36:                                               ; preds = %30
  %37 = call noundef zeroext i1 @_ZNK9Imath_3_14half10isInfinityEv(ptr noundef nonnull align 2 dereferenceable(2) %6) #3
  br i1 %37, label %38, label %42

38:                                               ; preds = %36
  %39 = load i32, ptr %8, align 4, !tbaa !7
  %40 = load i32, ptr %10, align 4, !tbaa !7
  %41 = icmp ne i32 %39, %40
  store i1 %41, ptr %4, align 1
  store i32 1, ptr %12, align 4
  br label %55

42:                                               ; preds = %36
  %43 = load i32, ptr %10, align 4, !tbaa !7
  %44 = load i32, ptr %8, align 4, !tbaa !7
  %45 = sub nsw i32 %43, %44
  %46 = call i32 @llvm.abs.i32(i32 %45, i1 true)
  %47 = load i32, ptr %7, align 4, !tbaa !7
  %48 = icmp sgt i32 %46, %47
  br i1 %48, label %49, label %50

49:                                               ; preds = %42
  store i1 true, ptr %4, align 1
  store i32 1, ptr %12, align 4
  br label %55

50:                                               ; preds = %42
  br label %51

51:                                               ; preds = %50
  br label %52

52:                                               ; preds = %51
  br label %53

53:                                               ; preds = %52
  br label %54

54:                                               ; preds = %53
  store i1 false, ptr %4, align 1
  store i32 1, ptr %12, align 4
  br label %55

55:                                               ; preds = %54, %49, %38, %32, %27, %22
  call void @llvm.lifetime.end.p0(i64 4, ptr %10) #3
  call void @llvm.lifetime.end.p0(i64 4, ptr %8) #3
  %56 = load i1, ptr %4, align 1
  ret i1 %56
}