; Function Attrs: mustprogress nofree norecurse nosync nounwind willreturn memory(none) uwtable
define hidden noundef zeroext i1 @_ZN19OpenColorIO_v2_5dev11HalfsDifferEN9Imath_3_14halfES1_i(i16 %0, i16 %1, i32 noundef %2) local_unnamed_addr #4 {
  %4 = zext i16 %0 to i32
  %5 = icmp ult i16 %0, 32767
  %6 = add nuw nsw i32 %4, 32768
  %7 = sub nuw nsw i32 65536, %4
  %8 = select i1 %5, i32 %6, i32 %7
  %9 = zext i16 %1 to i32
  %10 = icmp ult i16 %1, 32767
  %11 = add nuw nsw i32 %9, 32768
  %12 = sub nuw nsw i32 65536, %9
  %13 = select i1 %10, i32 %11, i32 %12
  %14 = and i16 %0, 31744
  %15 = icmp eq i16 %14, 31744
  %16 = and i16 %0, 1023
  %17 = icmp ne i16 %16, 0
  %18 = and i1 %15, %17
  %19 = and i16 %1, 31744
  %20 = and i16 %1, 1023
  br i1 %18, label %21, label %24

21:                                               ; preds = %3
  %22 = icmp ne i16 %19, 31744
  %23 = icmp eq i16 %20, 0
  %.not15 = or i1 %22, %23
  br label %42

24:                                               ; preds = %3
  %25 = icmp eq i16 %19, 31744
  %26 = icmp ne i16 %20, 0
  %27 = and i1 %25, %26
  br i1 %27, label %42, label %28

28:                                               ; preds = %24
  %29 = and i16 %0, 32767
  %30 = icmp eq i16 %29, 31744
  br i1 %30, label %31, label %33

31:                                               ; preds = %28
  %32 = icmp ne i32 %8, %13
  br label %42

33:                                               ; preds = %28
  %34 = and i16 %1, 32767
  %35 = icmp eq i16 %34, 31744
  br i1 %35, label %36, label %38

36:                                               ; preds = %33
  %37 = icmp ne i32 %8, %13
  br label %42

38:                                               ; preds = %33
  %39 = sub nsw i32 %13, %8
  %40 = tail call i32 @llvm.abs.i32(i32 %39, i1 true)
  %41 = icmp sgt i32 %40, %2
  br label %42

42:                                               ; preds = %24, %38, %36, %31, %21
  %.0 = phi i1 [ %.not15, %21 ], [ %32, %31 ], [ %37, %36 ], [ %41, %38 ], [ true, %24 ]
  ret i1 %.0
}